; Function Attrs: nounwind uwtable
define range(i32 0, 2) i32 @stbi__hdr_test(ptr noundef %0) local_unnamed_addr #2 {
  %2 = getelementptr inbounds nuw i8, ptr %0, i64 192
  %3 = getelementptr inbounds nuw i8, ptr %0, i64 200
  %4 = getelementptr inbounds nuw i8, ptr %0, i64 48
  %5 = getelementptr inbounds nuw i8, ptr %0, i64 16
  %6 = getelementptr inbounds nuw i8, ptr %0, i64 40
  %7 = getelementptr inbounds nuw i8, ptr %0, i64 56
  %8 = getelementptr inbounds nuw i8, ptr %0, i64 52
  %9 = getelementptr inbounds nuw i8, ptr %0, i64 208
  %10 = getelementptr inbounds nuw i8, ptr %0, i64 184
  %11 = getelementptr inbounds nuw i8, ptr %0, i64 57
  %.pre.i = load ptr, ptr %2, align 8, !tbaa !14
  %.pre12.i = load ptr, ptr %3, align 8, !tbaa !16
  br label %13

12:                                               ; preds = %stbi__get8.exit.i
  %indvars.iv.next.i = add nuw nsw i64 %indvars.iv.i, 1
  %exitcond = icmp eq i64 %indvars.iv.next.i, 11
  br i1 %exitcond, label %stbi__hdr_test_core.exit, label %13, !llvm.loop !84

13:                                               ; preds = %12, %1
  %14 = phi ptr [ %.pre12.i, %1 ], [ %42, %12 ]
  %15 = phi ptr [ %.pre.i, %1 ], [ %43, %12 ]
  %indvars.iv.i = phi i64 [ 0, %1 ], [ %indvars.iv.next.i, %12 ]
  %16 = getelementptr inbounds nuw i8, ptr @.str.99, i64 %indvars.iv.i
  %17 = icmp ult ptr %15, %14
  br i1 %17, label %18, label %21

18:                                               ; preds = %13
  %19 = getelementptr inbounds nuw i8, ptr %15, i64 1
  store ptr %19, ptr %2, align 8, !tbaa !14
  %20 = load i8, ptr %15, align 1, !tbaa !21
  br label %stbi__get8.exit.i

21:                                               ; preds = %13
  %22 = load i32, ptr %4, align 8, !tbaa !11
  %.not.i.i = icmp eq i32 %22, 0
  br i1 %.not.i.i, label %stbi__get8.exit.i, label %23

23:                                               ; preds = %21
  %24 = load ptr, ptr %5, align 8, !tbaa !3
  %25 = load ptr, ptr %6, align 8, !tbaa !19
  %26 = load i32, ptr %8, align 4, !tbaa !20
  %27 = tail call i32 %24(ptr noundef %25, ptr noundef nonnull %7, i32 noundef %26) #37
  %28 = load ptr, ptr %2, align 8, !tbaa !14
  %29 = load ptr, ptr %9, align 8, !tbaa !13
  %30 = ptrtoint ptr %28 to i64
  %31 = ptrtoint ptr %29 to i64
  %32 = sub i64 %30, %31
  %33 = trunc i64 %32 to i32
  %34 = load i32, ptr %10, align 8, !tbaa !12
  %35 = add nsw i32 %34, %33
  store i32 %35, ptr %10, align 8, !tbaa !12
  %36 = icmp eq i32 %27, 0
  br i1 %36, label %37, label %38

37:                                               ; preds = %23
  store i32 0, ptr %4, align 8, !tbaa !11
  store i8 0, ptr %7, align 1, !tbaa !21
  br label %stbi__refill_buffer.exit.i.i

38:                                               ; preds = %23
  %39 = sext i32 %27 to i64
  %40 = getelementptr inbounds i8, ptr %7, i64 %39
  %.pre.i.i = load i8, ptr %7, align 1, !tbaa !21
  br label %stbi__refill_buffer.exit.i.i

stbi__refill_buffer.exit.i.i:                     ; preds = %38, %37
  %41 = phi i8 [ 0, %37 ], [ %.pre.i.i, %38 ]
  %.sink.i.i.i = phi ptr [ %11, %37 ], [ %40, %38 ]
  store ptr %.sink.i.i.i, ptr %3, align 8, !tbaa !16
  store ptr %11, ptr %2, align 8, !tbaa !14
  br label %stbi__get8.exit.i

stbi__get8.exit.i:                                ; preds = %stbi__refill_buffer.exit.i.i, %21, %18
  %42 = phi ptr [ %14, %18 ], [ %.sink.i.i.i, %stbi__refill_buffer.exit.i.i ], [ %14, %21 ]
  %43 = phi ptr [ %19, %18 ], [ %11, %stbi__refill_buffer.exit.i.i ], [ %15, %21 ]
  %.0.i.i = phi i8 [ %20, %18 ], [ %41, %stbi__refill_buffer.exit.i.i ], [ 0, %21 ]
  %44 = zext i8 %.0.i.i to i32
  %45 = load i8, ptr %16, align 1, !tbaa !21
  %46 = sext i8 %45 to i32
  %.not8.i = icmp eq i32 %44, %46
  br i1 %.not8.i, label %12, label %49

stbi__hdr_test_core.exit:                         ; preds = %12
  %47 = load ptr, ptr %9, align 8, !tbaa !13
  %48 = getelementptr inbounds nuw i8, ptr %0, i64 216
  br label %stbi__hdr_test_core.exit20

49:                                               ; preds = %stbi__get8.exit.i
  %50 = load ptr, ptr %9, align 8, !tbaa !13
  store ptr %50, ptr %2, align 8, !tbaa !14
  %51 = getelementptr inbounds nuw i8, ptr %0, i64 216
  %52 = load ptr, ptr %51, align 8, !tbaa !15
  store ptr %52, ptr %3, align 8, !tbaa !16
  br label %54

53:                                               ; preds = %stbi__get8.exit.i13
  %indvars.iv.next.i17 = add nuw nsw i64 %indvars.iv.i8, 1
  %exitcond23 = icmp eq i64 %indvars.iv.next.i17, 7
  br i1 %exitcond23, label %stbi__hdr_test_core.exit20, label %54, !llvm.loop !84

54:                                               ; preds = %53, %49
  %55 = phi ptr [ %50, %49 ], [ %84, %53 ]
  %56 = phi ptr [ %52, %49 ], [ %85, %53 ]
  %57 = phi ptr [ %50, %49 ], [ %86, %53 ]
  %indvars.iv.i8 = phi i64 [ 0, %49 ], [ %indvars.iv.next.i17, %53 ]
  %58 = getelementptr inbounds nuw i8, ptr @.str.100, i64 %indvars.iv.i8
  %59 = icmp ult ptr %57, %56
  br i1 %59, label %60, label %63

60:                                               ; preds = %54
  %61 = getelementptr inbounds nuw i8, ptr %57, i64 1
  store ptr %61, ptr %2, align 8, !tbaa !14
  %62 = load i8, ptr %57, align 1, !tbaa !21
  br label %stbi__get8.exit.i13

63:                                               ; preds = %54
  %64 = load i32, ptr %4, align 8, !tbaa !11
  %.not.i.i9 = icmp eq i32 %64, 0
  br i1 %.not.i.i9, label %stbi__get8.exit.i13, label %65

65:                                               ; preds = %63
  %66 = load ptr, ptr %5, align 8, !tbaa !3
  %67 = load ptr, ptr %6, align 8, !tbaa !19
  %68 = load i32, ptr %8, align 4, !tbaa !20
  %69 = tail call i32 %66(ptr noundef %67, ptr noundef nonnull %7, i32 noundef %68) #37
  %70 = load ptr, ptr %2, align 8, !tbaa !14
  %71 = load ptr, ptr %9, align 8, !tbaa !13
  %72 = ptrtoint ptr %70 to i64
  %73 = ptrtoint ptr %71 to i64
  %74 = sub i64 %72, %73
  %75 = trunc i64 %74 to i32
  %76 = load i32, ptr %10, align 8, !tbaa !12
  %77 = add nsw i32 %76, %75
  store i32 %77, ptr %10, align 8, !tbaa !12
  %78 = icmp eq i32 %69, 0
  br i1 %78, label %79, label %80

79:                                               ; preds = %65
  store i32 0, ptr %4, align 8, !tbaa !11
  store i8 0, ptr %7, align 1, !tbaa !21
  br label %stbi__refill_buffer.exit.i.i11

80:                                               ; preds = %65
  %81 = sext i32 %69 to i64
  %82 = getelementptr inbounds i8, ptr %7, i64 %81
  %.pre.i.i10 = load i8, ptr %7, align 1, !tbaa !21
  br label %stbi__refill_buffer.exit.i.i11

stbi__refill_buffer.exit.i.i11:                   ; preds = %80, %79
  %83 = phi i8 [ 0, %79 ], [ %.pre.i.i10, %80 ]
  %.sink.i.i.i12 = phi ptr [ %11, %79 ], [ %82, %80 ]
  store ptr %.sink.i.i.i12, ptr %3, align 8, !tbaa !16
  store ptr %11, ptr %2, align 8, !tbaa !14
  br label %stbi__get8.exit.i13

stbi__get8.exit.i13:                              ; preds = %stbi__refill_buffer.exit.i.i11, %63, %60
  %84 = phi ptr [ %55, %60 ], [ %71, %stbi__refill_buffer.exit.i.i11 ], [ %55, %63 ]
  %85 = phi ptr [ %56, %60 ], [ %.sink.i.i.i12, %stbi__refill_buffer.exit.i.i11 ], [ %56, %63 ]
  %86 = phi ptr [ %61, %60 ], [ %11, %stbi__refill_buffer.exit.i.i11 ], [ %57, %63 ]
  %.0.i.i14 = phi i8 [ %62, %60 ], [ %83, %stbi__refill_buffer.exit.i.i11 ], [ 0, %63 ]
  %87 = zext i8 %.0.i.i14 to i32
  %88 = load i8, ptr %58, align 1, !tbaa !21
  %89 = sext i8 %88 to i32
  %.not8.i15 = icmp eq i32 %87, %89
  br i1 %.not8.i15, label %53, label %stbi__hdr_test_core.exit20

stbi__hdr_test_core.exit20:                       ; preds = %stbi__get8.exit.i13, %53, %stbi__hdr_test_core.exit
  %storemerge26 = phi ptr [ %47, %stbi__hdr_test_core.exit ], [ %84, %53 ], [ %84, %stbi__get8.exit.i13 ]
  %storemerge.in = phi ptr [ %48, %stbi__hdr_test_core.exit ], [ %51, %53 ], [ %51, %stbi__get8.exit.i13 ]
  %.0 = phi i32 [ 1, %stbi__hdr_test_core.exit ], [ 0, %stbi__get8.exit.i13 ], [ 1, %53 ]
  %storemerge = load ptr, ptr %storemerge.in, align 8, !tbaa !15
  store ptr %storemerge26, ptr %2, align 8, !tbaa !14
  store ptr %storemerge, ptr %3, align 8, !tbaa !16
  ret i32 %.0
}